; ModuleID = '17/793.c'
source_filename = "17/793.c"
target datalayout = "e-m:e-p270:32:32-p271:32:32-p272:64:64-i64:64-f80:128-n8:16:32:64-S128"
target triple = "x86_64-pc-linux-gnu"

@.str = private unnamed_addr constant [4 x i8] c"%d\0A\00", align 1
@.str.1 = private unnamed_addr constant [2 x i8] c"$\00", align 1
@.str.2 = private unnamed_addr constant [2 x i8] c"?\00", align 1
@.str.3 = private unnamed_addr constant [2 x i8] c" \00", align 1
@.str.4 = private unnamed_addr constant [2 x i8] c"\0A\00", align 1

; Function Attrs: noinline nounwind uwtable
define dso_local i32 @main() #0 {
  %1 = alloca i32, align 4
  %2 = alloca i32, align 4
  %3 = alloca i32, align 4
  %4 = alloca i32, align 4
  %5 = alloca i32, align 4
  %6 = alloca i32, align 4
  %7 = alloca i32, align 4
  %8 = alloca i32, align 4
  %9 = alloca [10 x [101 x i8]], align 16
  %10 = alloca [10 x [101 x i32]], align 16
  store i32 0, i32* %1, align 4
  store i32 0, i32* %6, align 4
  store i32 0, i32* %7, align 4
  %11 = bitcast [10 x [101 x i8]]* %9 to i8*
  call void @llvm.memset.p0i8.i64(i8* align 16 %11, i8 0, i64 1010, i1 false)
  %12 = bitcast [10 x [101 x i32]]* %10 to i8*
  call void @llvm.memset.p0i8.i64(i8* align 16 %12, i8 0, i64 4040, i1 false)
  %13 = call i32 (i8*, ...) @__isoc99_scanf(i8* getelementptr inbounds ([4 x i8], [4 x i8]* @.str, i64 0, i64 0), i32* %5)
  store i32 0, i32* %2, align 4
  br label %14

14:                                               ; preds = %138, %0
  %15 = load i32, i32* %2, align 4
  %16 = load i32, i32* %5, align 4
  %17 = icmp slt i32 %15, %16
  br i1 %17, label %18, label %141

18:                                               ; preds = %14
  %19 = load i32, i32* %2, align 4
  %20 = sext i32 %19 to i64
  %21 = getelementptr inbounds [10 x [101 x i8]], [10 x [101 x i8]]* %9, i64 0, i64 %20
  %22 = getelementptr inbounds [101 x i8], [101 x i8]* %21, i64 0, i64 0
  %23 = call i32 (i8*, ...) bitcast (i32 (...)* @gets to i32 (i8*, ...)*)(i8* %22)
  %24 = load i32, i32* %2, align 4
  %25 = sext i32 %24 to i64
  %26 = getelementptr inbounds [10 x [101 x i8]], [10 x [101 x i8]]* %9, i64 0, i64 %25
  %27 = getelementptr inbounds [101 x i8], [101 x i8]* %26, i64 0, i64 0
  %28 = call i64 @strlen(i8* %27) #4
  %29 = trunc i64 %28 to i32
  store i32 %29, i32* %4, align 4
  store i32 0, i32* %3, align 4
  br label %30

30:                                               ; preds = %73, %18
  %31 = load i32, i32* %3, align 4
  %32 = load i32, i32* %4, align 4
  %33 = icmp slt i32 %31, %32
  br i1 %33, label %34, label %76

34:                                               ; preds = %30
  %35 = load i32, i32* %2, align 4
  %36 = sext i32 %35 to i64
  %37 = getelementptr inbounds [10 x [101 x i8]], [10 x [101 x i8]]* %9, i64 0, i64 %36
  %38 = load i32, i32* %3, align 4
  %39 = sext i32 %38 to i64
  %40 = getelementptr inbounds [101 x i8], [101 x i8]* %37, i64 0, i64 %39
  %41 = load i8, i8* %40, align 1
  %42 = sext i8 %41 to i32
  %43 = icmp eq i32 %42, 40
  br i1 %43, label %44, label %53

44:                                               ; preds = %34
  %45 = load i32, i32* %2, align 4
  %46 = sext i32 %45 to i64
  %47 = getelementptr inbounds [10 x [101 x i32]], [10 x [101 x i32]]* %10, i64 0, i64 %46
  %48 = load i32, i32* %3, align 4
  %49 = sext i32 %48 to i64
  %50 = getelementptr inbounds [101 x i32], [101 x i32]* %47, i64 0, i64 %49
  store i32 -1, i32* %50, align 4
  %51 = load i32, i32* %6, align 4
  %52 = add nsw i32 %51, 1
  store i32 %52, i32* %6, align 4
  br label %53

53:                                               ; preds = %44, %34
  %54 = load i32, i32* %2, align 4
  %55 = sext i32 %54 to i64
  %56 = getelementptr inbounds [10 x [101 x i8]], [10 x [101 x i8]]* %9, i64 0, i64 %55
  %57 = load i32, i32* %3, align 4
  %58 = sext i32 %57 to i64
  %59 = getelementptr inbounds [101 x i8], [101 x i8]* %56, i64 0, i64 %58
  %60 = load i8, i8* %59, align 1
  %61 = sext i8 %60 to i32
  %62 = icmp eq i32 %61, 41
  br i1 %62, label %63, label %72

63:                                               ; preds = %53
  %64 = load i32, i32* %2, align 4
  %65 = sext i32 %64 to i64
  %66 = getelementptr inbounds [10 x [101 x i32]], [10 x [101 x i32]]* %10, i64 0, i64 %65
  %67 = load i32, i32* %3, align 4
  %68 = sext i32 %67 to i64
  %69 = getelementptr inbounds [101 x i32], [101 x i32]* %66, i64 0, i64 %68
  store i32 1, i32* %69, align 4
  %70 = load i32, i32* %7, align 4
  %71 = add nsw i32 %70, 1
  store i32 %71, i32* %7, align 4
  br label %72

72:                                               ; preds = %63, %53
  br label %73

73:                                               ; preds = %72
  %74 = load i32, i32* %3, align 4
  %75 = add nsw i32 %74, 1
  store i32 %75, i32* %3, align 4
  br label %30

76:                                               ; preds = %30
  store i32 0, i32* %3, align 4
  br label %77

77:                                               ; preds = %134, %76
  %78 = load i32, i32* %6, align 4
  %79 = icmp ne i32 %78, 0
  %80 = zext i1 %79 to i32
  %81 = load i32, i32* %7, align 4
  %82 = icmp ne i32 %81, 0
  %83 = zext i1 %82 to i32
  %84 = load i32, i32* %3, align 4
  %85 = load i32, i32* %4, align 4
  %86 = icmp slt i32 %84, %85
  br i1 %86, label %87, label %137

87:                                               ; preds = %77
  %88 = load i32, i32* %2, align 4
  %89 = sext i32 %88 to i64
  %90 = getelementptr inbounds [10 x [101 x i32]], [10 x [101 x i32]]* %10, i64 0, i64 %89
  %91 = load i32, i32* %3, align 4
  %92 = sext i32 %91 to i64
  %93 = getelementptr inbounds [101 x i32], [101 x i32]* %90, i64 0, i64 %92
  %94 = load i32, i32* %93, align 4
  %95 = icmp eq i32 %94, 1
  br i1 %95, label %96, label %133

96:                                               ; preds = %87
  %97 = load i32, i32* %3, align 4
  %98 = sub nsw i32 %97, 1
  store i32 %98, i32* %8, align 4
  br label %99

99:                                               ; preds = %129, %96
  %100 = load i32, i32* %8, align 4
  %101 = icmp sge i32 %100, 0
  br i1 %101, label %102, label %132

102:                                              ; preds = %99
  %103 = load i32, i32* %2, align 4
  %104 = sext i32 %103 to i64
  %105 = getelementptr inbounds [10 x [101 x i32]], [10 x [101 x i32]]* %10, i64 0, i64 %104
  %106 = load i32, i32* %8, align 4
  %107 = sext i32 %106 to i64
  %108 = getelementptr inbounds [101 x i32], [101 x i32]* %105, i64 0, i64 %107
  %109 = load i32, i32* %108, align 4
  %110 = icmp eq i32 %109, -1
  br i1 %110, label %111, label %128

111:                                              ; preds = %102
  %112 = load i32, i32* %2, align 4
  %113 = sext i32 %112 to i64
  %114 = getelementptr inbounds [10 x [101 x i32]], [10 x [101 x i32]]* %10, i64 0, i64 %113
  %115 = load i32, i32* %8, align 4
  %116 = sext i32 %115 to i64
  %117 = getelementptr inbounds [101 x i32], [101 x i32]* %114, i64 0, i64 %116
  store i32 0, i32* %117, align 4
  %118 = load i32, i32* %2, align 4
  %119 = sext i32 %118 to i64
  %120 = getelementptr inbounds [10 x [101 x i32]], [10 x [101 x i32]]* %10, i64 0, i64 %119
  %121 = load i32, i32* %3, align 4
  %122 = sext i32 %121 to i64
  %123 = getelementptr inbounds [101 x i32], [101 x i32]* %120, i64 0, i64 %122
  store i32 0, i32* %123, align 4
  %124 = load i32, i32* %6, align 4
  %125 = add nsw i32 %124, -1
  store i32 %125, i32* %6, align 4
  %126 = load i32, i32* %7, align 4
  %127 = add nsw i32 %126, -1
  store i32 %127, i32* %7, align 4
  br label %132

128:                                              ; preds = %102
  br label %129

129:                                              ; preds = %128
  %130 = load i32, i32* %8, align 4
  %131 = add nsw i32 %130, -1
  store i32 %131, i32* %8, align 4
  br label %99

132:                                              ; preds = %111, %99
  br label %133

133:                                              ; preds = %132, %87
  br label %134

134:                                              ; preds = %133
  %135 = load i32, i32* %3, align 4
  %136 = add nsw i32 %135, 1
  store i32 %136, i32* %3, align 4
  br label %77

137:                                              ; preds = %77
  br label %138

138:                                              ; preds = %137
  %139 = load i32, i32* %2, align 4
  %140 = add nsw i32 %139, 1
  store i32 %140, i32* %2, align 4
  br label %14

141:                                              ; preds = %14
  store i32 0, i32* %2, align 4
  br label %142

142:                                              ; preds = %201, %141
  %143 = load i32, i32* %2, align 4
  %144 = load i32, i32* %5, align 4
  %145 = icmp slt i32 %143, %144
  br i1 %145, label %146, label %204

146:                                              ; preds = %142
  %147 = load i32, i32* %2, align 4
  %148 = sext i32 %147 to i64
  %149 = getelementptr inbounds [10 x [101 x i8]], [10 x [101 x i8]]* %9, i64 0, i64 %148
  %150 = getelementptr inbounds [101 x i8], [101 x i8]* %149, i64 0, i64 0
  %151 = call i32 @puts(i8* %150)
  %152 = load i32, i32* %2, align 4
  %153 = sext i32 %152 to i64
  %154 = getelementptr inbounds [10 x [101 x i8]], [10 x [101 x i8]]* %9, i64 0, i64 %153
  %155 = getelementptr inbounds [101 x i8], [101 x i8]* %154, i64 0, i64 0
  %156 = call i64 @strlen(i8* %155) #4
  %157 = trunc i64 %156 to i32
  store i32 %157, i32* %4, align 4
  store i32 0, i32* %3, align 4
  br label %158

158:                                              ; preds = %196, %146
  %159 = load i32, i32* %3, align 4
  %160 = load i32, i32* %4, align 4
  %161 = icmp slt i32 %159, %160
  br i1 %161, label %162, label %199

162:                                              ; preds = %158
  %163 = load i32, i32* %2, align 4
  %164 = sext i32 %163 to i64
  %165 = getelementptr inbounds [10 x [101 x i32]], [10 x [101 x i32]]* %10, i64 0, i64 %164
  %166 = load i32, i32* %3, align 4
  %167 = sext i32 %166 to i64
  %168 = getelementptr inbounds [101 x i32], [101 x i32]* %165, i64 0, i64 %167
  %169 = load i32, i32* %168, align 4
  %170 = icmp eq i32 %169, -1
  br i1 %170, label %171, label %173

171:                                              ; preds = %162
  %172 = call i32 (i8*, ...) @printf(i8* getelementptr inbounds ([2 x i8], [2 x i8]* @.str.1, i64 0, i64 0))
  br label %173

173:                                              ; preds = %171, %162
  %174 = load i32, i32* %2, align 4
  %175 = sext i32 %174 to i64
  %176 = getelementptr inbounds [10 x [101 x i32]], [10 x [101 x i32]]* %10, i64 0, i64 %175
  %177 = load i32, i32* %3, align 4
  %178 = sext i32 %177 to i64
  %179 = getelementptr inbounds [101 x i32], [101 x i32]* %176, i64 0, i64 %178
  %180 = load i32, i32* %179, align 4
  %181 = icmp eq i32 %180, 1
  br i1 %181, label %182, label %184

182:                                              ; preds = %173
  %183 = call i32 (i8*, ...) @printf(i8* getelementptr inbounds ([2 x i8], [2 x i8]* @.str.2, i64 0, i64 0))
  br label %184

184:                                              ; preds = %182, %173
  %185 = load i32, i32* %2, align 4
  %186 = sext i32 %185 to i64
  %187 = getelementptr inbounds [10 x [101 x i32]], [10 x [101 x i32]]* %10, i64 0, i64 %186
  %188 = load i32, i32* %3, align 4
  %189 = sext i32 %188 to i64
  %190 = getelementptr inbounds [101 x i32], [101 x i32]* %187, i64 0, i64 %189
  %191 = load i32, i32* %190, align 4
  %192 = icmp eq i32 %191, 0
  br i1 %192, label %193, label %195

193:                                              ; preds = %184
  %194 = call i32 (i8*, ...) @printf(i8* getelementptr inbounds ([2 x i8], [2 x i8]* @.str.3, i64 0, i64 0))
  br label %195

195:                                              ; preds = %193, %184
  br label %196

196:                                              ; preds = %195
  %197 = load i32, i32* %3, align 4
  %198 = add nsw i32 %197, 1
  store i32 %198, i32* %3, align 4
  br label %158

199:                                              ; preds = %158
  %200 = call i32 (i8*, ...) @printf(i8* getelementptr inbounds ([2 x i8], [2 x i8]* @.str.4, i64 0, i64 0))
  br label %201

201:                                              ; preds = %199
  %202 = load i32, i32* %2, align 4
  %203 = add nsw i32 %202, 1
  store i32 %203, i32* %2, align 4
  br label %142

204:                                              ; preds = %142
  ret i32 0
}

; Function Attrs: argmemonly nounwind willreturn
declare void @llvm.memset.p0i8.i64(i8* nocapture writeonly, i8, i64, i1 immarg) #1

declare dso_local i32 @__isoc99_scanf(i8*, ...) #2

declare dso_local i32 @gets(...) #2

; Function Attrs: nounwind readonly
declare dso_local i64 @strlen(i8*) #3

declare dso_local i32 @puts(i8*) #2

declare dso_local i32 @printf(i8*, ...) #2


!llvm.module.flags = !{!0}
!llvm.ident = !{!1}

!0 = !{i32 1, !"wchar_size", i32 4}
!1 = !{!"clang version 10.0.0-4ubuntu1 "}
